target datalayout = "e-m:e-p270:32:32-p271:32:32-p272:64:64-i64:64-i128:128-f80:128-n8:16:32:64-S128"
target triple = "x86_64-pc-linux-gnu"

@.str = private unnamed_addr constant [130 x i8] c"generated/home/dtcxzyw/WorkSpace/Projects/compilers/llvm-opt-benchmark/bench/lief/bench_build/mbed_src/library/ssl_tls13_server.c\00", align 1
@.str.78 = private unnamed_addr constant [31 x i8] c"PSK binder calculation failed.\00", align 1
@.str.79 = private unnamed_addr constant [26 x i8] c"psk binder ( computed ): \00", align 1
@.str.80 = private unnamed_addr constant [26 x i8] c"psk binder ( received ): \00", align 1

; Function Attrs: inlinehint nounwind uwtable
define internal i32 @mbedtls_md_type_from_psa_alg(i32 noundef %0) #3 {
  %2 = alloca i32, align 4
  store i32 %0, ptr %2, align 4, !tbaa !8
  %3 = load i32, ptr %2, align 4, !tbaa !8
  %4 = and i32 %3, 255
  ret i32 %4
}

; Function Attrs: nounwind uwtable
define internal i32 @ssl_tls13_offered_psks_check_binder_match(ptr noundef %0, ptr noundef %1, i64 noundef %2, i32 noundef %3, i32 noundef %4) #0 {
  %6 = alloca i32, align 4
  %7 = alloca ptr, align 8
  %8 = alloca ptr, align 8
  %9 = alloca i64, align 8
  %10 = alloca i32, align 4
  %11 = alloca i32, align 4
  %12 = alloca i32, align 4
  %13 = alloca [64 x i8], align 16
  %14 = alloca i64, align 8
  %15 = alloca ptr, align 8
  %16 = alloca i64, align 8
  %17 = alloca [64 x i8], align 16
  %18 = alloca i32, align 4
  store ptr %0, ptr %7, align 8, !tbaa !3
  store ptr %1, ptr %8, align 8, !tbaa !41
  store i64 %2, ptr %9, align 8, !tbaa !42
  store i32 %3, ptr %10, align 4, !tbaa !8
  store i32 %4, ptr %11, align 4, !tbaa !8
  call void @llvm.lifetime.start.p0(i64 4, ptr %12) #10
  store i32 -110, ptr %12, align 4, !tbaa !8
  call void @llvm.lifetime.start.p0(i64 64, ptr %13) #10
  call void @llvm.lifetime.start.p0(i64 8, ptr %14) #10
  call void @llvm.lifetime.start.p0(i64 8, ptr %15) #10
  call void @llvm.lifetime.start.p0(i64 8, ptr %16) #10
  call void @llvm.lifetime.start.p0(i64 64, ptr %17) #10
  %19 = load i64, ptr %9, align 8, !tbaa !42
  %20 = load i32, ptr %11, align 4, !tbaa !8
  %21 = and i32 %20, 255
  %22 = or i32 33554432, %21
  %23 = icmp eq i32 %22, 33554435
  br i1 %23, label %24, label %25

24:                                               ; preds = %5
  br label %119

25:                                               ; preds = %5
  %26 = load i32, ptr %11, align 4, !tbaa !8
  %27 = and i32 %26, 255
  %28 = or i32 33554432, %27
  %29 = icmp eq i32 %28, 33554436
  br i1 %29, label %30, label %31

30:                                               ; preds = %25
  br label %117

31:                                               ; preds = %25
  %32 = load i32, ptr %11, align 4, !tbaa !8
  %33 = and i32 %32, 255
  %34 = or i32 33554432, %33
  %35 = icmp eq i32 %34, 33554437
  br i1 %35, label %36, label %37

36:                                               ; preds = %31
  br label %115

37:                                               ; preds = %31
  %38 = load i32, ptr %11, align 4, !tbaa !8
  %39 = and i32 %38, 255
  %40 = or i32 33554432, %39
  %41 = icmp eq i32 %40, 33554440
  br i1 %41, label %42, label %43

42:                                               ; preds = %37
  br label %113

43:                                               ; preds = %37
  %44 = load i32, ptr %11, align 4, !tbaa !8
  %45 = and i32 %44, 255
  %46 = or i32 33554432, %45
  %47 = icmp eq i32 %46, 33554441
  br i1 %47, label %48, label %49

48:                                               ; preds = %43
  br label %111

49:                                               ; preds = %43
  %50 = load i32, ptr %11, align 4, !tbaa !8
  %51 = and i32 %50, 255
  %52 = or i32 33554432, %51
  %53 = icmp eq i32 %52, 33554442
  br i1 %53, label %54, label %55

54:                                               ; preds = %49
  br label %109

55:                                               ; preds = %49
  %56 = load i32, ptr %11, align 4, !tbaa !8
  %57 = and i32 %56, 255
  %58 = or i32 33554432, %57
  %59 = icmp eq i32 %58, 33554443
  br i1 %59, label %60, label %61

60:                                               ; preds = %55
  br label %107

61:                                               ; preds = %55
  %62 = load i32, ptr %11, align 4, !tbaa !8
  %63 = and i32 %62, 255
  %64 = or i32 33554432, %63
  %65 = icmp eq i32 %64, 33554444
  br i1 %65, label %66, label %67

66:                                               ; preds = %61
  br label %105

67:                                               ; preds = %61
  %68 = load i32, ptr %11, align 4, !tbaa !8
  %69 = and i32 %68, 255
  %70 = or i32 33554432, %69
  %71 = icmp eq i32 %70, 33554445
  br i1 %71, label %72, label %73

72:                                               ; preds = %67
  br label %103

73:                                               ; preds = %67
  %74 = load i32, ptr %11, align 4, !tbaa !8
  %75 = and i32 %74, 255
  %76 = or i32 33554432, %75
  %77 = icmp eq i32 %76, 33554448
  br i1 %77, label %78, label %79

78:                                               ; preds = %73
  br label %101

79:                                               ; preds = %73
  %80 = load i32, ptr %11, align 4, !tbaa !8
  %81 = and i32 %80, 255
  %82 = or i32 33554432, %81
  %83 = icmp eq i32 %82, 33554449
  br i1 %83, label %84, label %85

84:                                               ; preds = %79
  br label %99

85:                                               ; preds = %79
  %86 = load i32, ptr %11, align 4, !tbaa !8
  %87 = and i32 %86, 255
  %88 = or i32 33554432, %87
  %89 = icmp eq i32 %88, 33554450
  br i1 %89, label %90, label %91

90:                                               ; preds = %85
  br label %97

91:                                               ; preds = %85
  %92 = load i32, ptr %11, align 4, !tbaa !8
  %93 = and i32 %92, 255
  %94 = or i32 33554432, %93
  %95 = icmp eq i32 %94, 33554451
  %96 = select i1 %95, i32 64, i32 0
  br label %97

97:                                               ; preds = %91, %90
  %98 = phi i32 [ 48, %90 ], [ %96, %91 ]
  br label %99

99:                                               ; preds = %97, %84
  %100 = phi i32 [ 32, %84 ], [ %98, %97 ]
  br label %101

101:                                              ; preds = %99, %78
  %102 = phi i32 [ 28, %78 ], [ %100, %99 ]
  br label %103

103:                                              ; preds = %101, %72
  %104 = phi i32 [ 32, %72 ], [ %102, %101 ]
  br label %105

105:                                              ; preds = %103, %66
  %106 = phi i32 [ 28, %66 ], [ %104, %103 ]
  br label %107

107:                                              ; preds = %105, %60
  %108 = phi i32 [ 64, %60 ], [ %106, %105 ]
  br label %109

109:                                              ; preds = %107, %54
  %110 = phi i32 [ 48, %54 ], [ %108, %107 ]
  br label %111

111:                                              ; preds = %109, %48
  %112 = phi i32 [ 32, %48 ], [ %110, %109 ]
  br label %113

113:                                              ; preds = %111, %42
  %114 = phi i32 [ 28, %42 ], [ %112, %111 ]
  br label %115

115:                                              ; preds = %113, %36
  %116 = phi i32 [ 20, %36 ], [ %114, %113 ]
  br label %117

117:                                              ; preds = %115, %30
  %118 = phi i32 [ 20, %30 ], [ %116, %115 ]
  br label %119

119:                                              ; preds = %117, %24
  %120 = phi i32 [ 16, %24 ], [ %118, %117 ]
  %121 = zext i32 %120 to i64
  %122 = icmp ne i64 %19, %121
  br i1 %122, label %123, label %124

123:                                              ; preds = %119
  store i32 1, ptr %6, align 4
  store i32 1, ptr %18, align 4
  br label %270

124:                                              ; preds = %119
  %125 = load ptr, ptr %7, align 8, !tbaa !3
  %126 = load i32, ptr %11, align 4, !tbaa !8
  %127 = call i32 @mbedtls_md_type_from_psa_alg(i32 noundef %126)
  %128 = getelementptr inbounds [64 x i8], ptr %13, i64 0, i64 0
  %129 = call i32 @mbedtls_ssl_get_handshake_transcript(ptr noundef %125, i32 noundef %127, ptr noundef %128, i64 noundef 64, ptr noundef %14)
  store i32 %129, ptr %12, align 4, !tbaa !8
  %130 = load i32, ptr %12, align 4, !tbaa !8
  %131 = icmp ne i32 %130, 0
  br i1 %131, label %132, label %134

132:                                              ; preds = %124
  %133 = load i32, ptr %12, align 4, !tbaa !8
  store i32 %133, ptr %6, align 4
  store i32 1, ptr %18, align 4
  br label %270

134:                                              ; preds = %124
  %135 = load ptr, ptr %7, align 8, !tbaa !3
  %136 = call i32 @mbedtls_ssl_tls13_export_handshake_psk(ptr noundef %135, ptr noundef %15, ptr noundef %16)
  store i32 %136, ptr %12, align 4, !tbaa !8
  %137 = load i32, ptr %12, align 4, !tbaa !8
  %138 = icmp ne i32 %137, 0
  br i1 %138, label %139, label %141

139:                                              ; preds = %134
  %140 = load i32, ptr %12, align 4, !tbaa !8
  store i32 %140, ptr %6, align 4
  store i32 1, ptr %18, align 4
  br label %270

141:                                              ; preds = %134
  %142 = load ptr, ptr %7, align 8, !tbaa !3
  %143 = load i32, ptr %11, align 4, !tbaa !8
  %144 = load ptr, ptr %15, align 8, !tbaa !41
  %145 = load i64, ptr %16, align 8, !tbaa !42
  %146 = load i32, ptr %10, align 4, !tbaa !8
  %147 = getelementptr inbounds [64 x i8], ptr %13, i64 0, i64 0
  %148 = getelementptr inbounds [64 x i8], ptr %17, i64 0, i64 0
  %149 = call i32 @mbedtls_ssl_tls13_create_psk_binder(ptr noundef %142, i32 noundef %143, ptr noundef %144, i64 noundef %145, i32 noundef %146, ptr noundef %147, ptr noundef %148)
  store i32 %149, ptr %12, align 4, !tbaa !8
  %150 = load i32, ptr %12, align 4, !tbaa !8
  %151 = icmp ne i32 %150, 0
  br i1 %151, label %152, label %154

152:                                              ; preds = %141
  %153 = load ptr, ptr %7, align 8, !tbaa !3
  call void (ptr, i32, ptr, i32, ptr, ...) @mbedtls_debug_print_msg(ptr noundef %153, i32 noundef 1, ptr noundef @.str, i32 noundef 443, ptr noundef @.str.78)
  store i32 -28160, ptr %6, align 4
  store i32 1, ptr %18, align 4
  br label %270

154:                                              ; preds = %141
  %155 = load ptr, ptr %7, align 8, !tbaa !3
  %156 = getelementptr inbounds [64 x i8], ptr %17, i64 0, i64 0
  %157 = load i64, ptr %14, align 8, !tbaa !42
  call void @mbedtls_debug_print_buf(ptr noundef %155, i32 noundef 3, ptr noundef @.str, i32 noundef 448, ptr noundef @.str.79, ptr noundef %156, i64 noundef %157)
  %158 = load ptr, ptr %7, align 8, !tbaa !3
  %159 = load ptr, ptr %8, align 8, !tbaa !41
  %160 = load i64, ptr %9, align 8, !tbaa !42
  call void @mbedtls_debug_print_buf(ptr noundef %158, i32 noundef 3, ptr noundef @.str, i32 noundef 449, ptr noundef @.str.80, ptr noundef %159, i64 noundef %160)
  %161 = getelementptr inbounds [64 x i8], ptr %17, i64 0, i64 0
  %162 = load ptr, ptr %8, align 8, !tbaa !41
  %163 = load i32, ptr %11, align 4, !tbaa !8
  %164 = and i32 %163, 255
  %165 = or i32 33554432, %164
  %166 = icmp eq i32 %165, 33554435
  br i1 %166, label %167, label %168

167:                                              ; preds = %154
  br label %262

168:                                              ; preds = %154
  %169 = load i32, ptr %11, align 4, !tbaa !8
  %170 = and i32 %169, 255
  %171 = or i32 33554432, %170
  %172 = icmp eq i32 %171, 33554436
  br i1 %172, label %173, label %174

173:                                              ; preds = %168
  br label %260

174:                                              ; preds = %168
  %175 = load i32, ptr %11, align 4, !tbaa !8
  %176 = and i32 %175, 255
  %177 = or i32 33554432, %176
  %178 = icmp eq i32 %177, 33554437
  br i1 %178, label %179, label %180

179:                                              ; preds = %174
  br label %258

180:                                              ; preds = %174
  %181 = load i32, ptr %11, align 4, !tbaa !8
  %182 = and i32 %181, 255
  %183 = or i32 33554432, %182
  %184 = icmp eq i32 %183, 33554440
  br i1 %184, label %185, label %186

185:                                              ; preds = %180
  br label %256

186:                                              ; preds = %180
  %187 = load i32, ptr %11, align 4, !tbaa !8
  %188 = and i32 %187, 255
  %189 = or i32 33554432, %188
  %190 = icmp eq i32 %189, 33554441
  br i1 %190, label %191, label %192

191:                                              ; preds = %186
  br label %254

192:                                              ; preds = %186
  %193 = load i32, ptr %11, align 4, !tbaa !8
  %194 = and i32 %193, 255
  %195 = or i32 33554432, %194
  %196 = icmp eq i32 %195, 33554442
  br i1 %196, label %197, label %198

197:                                              ; preds = %192
  br label %252

198:                                              ; preds = %192
  %199 = load i32, ptr %11, align 4, !tbaa !8
  %200 = and i32 %199, 255
  %201 = or i32 33554432, %200
  %202 = icmp eq i32 %201, 33554443
  br i1 %202, label %203, label %204

203:                                              ; preds = %198
  br label %250

204:                                              ; preds = %198
  %205 = load i32, ptr %11, align 4, !tbaa !8
  %206 = and i32 %205, 255
  %207 = or i32 33554432, %206
  %208 = icmp eq i32 %207, 33554444
  br i1 %208, label %209, label %210

209:                                              ; preds = %204
  br label %248

210:                                              ; preds = %204
  %211 = load i32, ptr %11, align 4, !tbaa !8
  %212 = and i32 %211, 255
  %213 = or i32 33554432, %212
  %214 = icmp eq i32 %213, 33554445
  br i1 %214, label %215, label %216

215:                                              ; preds = %210
  br label %246

216:                                              ; preds = %210
  %217 = load i32, ptr %11, align 4, !tbaa !8
  %218 = and i32 %217, 255
  %219 = or i32 33554432, %218
  %220 = icmp eq i32 %219, 33554448
  br i1 %220, label %221, label %222

221:                                              ; preds = %216
  br label %244

222:                                              ; preds = %216
  %223 = load i32, ptr %11, align 4, !tbaa !8
  %224 = and i32 %223, 255
  %225 = or i32 33554432, %224
  %226 = icmp eq i32 %225, 33554449
  br i1 %226, label %227, label %228

227:                                              ; preds = %222
  br label %242

228:                                              ; preds = %222
  %229 = load i32, ptr %11, align 4, !tbaa !8
  %230 = and i32 %229, 255
  %231 = or i32 33554432, %230
  %232 = icmp eq i32 %231, 33554450
  br i1 %232, label %233, label %234

233:                                              ; preds = %228
  br label %240

234:                                              ; preds = %228
  %235 = load i32, ptr %11, align 4, !tbaa !8
  %236 = and i32 %235, 255
  %237 = or i32 33554432, %236
  %238 = icmp eq i32 %237, 33554451
  %239 = select i1 %238, i32 64, i32 0
  br label %240

240:                                              ; preds = %234, %233
  %241 = phi i32 [ 48, %233 ], [ %239, %234 ]
  br label %242

242:                                              ; preds = %240, %227
  %243 = phi i32 [ 32, %227 ], [ %241, %240 ]
  br label %244

244:                                              ; preds = %242, %221
  %245 = phi i32 [ 28, %221 ], [ %243, %242 ]
  br label %246

246:                                              ; preds = %244, %215
  %247 = phi i32 [ 32, %215 ], [ %245, %244 ]
  br label %248

248:                                              ; preds = %246, %209
  %249 = phi i32 [ 28, %209 ], [ %247, %246 ]
  br label %250

250:                                              ; preds = %248, %203
  %251 = phi i32 [ 64, %203 ], [ %249, %248 ]
  br label %252

252:                                              ; preds = %250, %197
  %253 = phi i32 [ 48, %197 ], [ %251, %250 ]
  br label %254

254:                                              ; preds = %252, %191
  %255 = phi i32 [ 32, %191 ], [ %253, %252 ]
  br label %256

256:                                              ; preds = %254, %185
  %257 = phi i32 [ 28, %185 ], [ %255, %254 ]
  br label %258

258:                                              ; preds = %256, %179
  %259 = phi i32 [ 20, %179 ], [ %257, %256 ]
  br label %260

260:                                              ; preds = %258, %173
  %261 = phi i32 [ 20, %173 ], [ %259, %258 ]
  br label %262

262:                                              ; preds = %260, %167
  %263 = phi i32 [ 16, %167 ], [ %261, %260 ]
  %264 = zext i32 %263 to i64
  %265 = call i32 @mbedtls_ct_memcmp(ptr noundef %161, ptr noundef %162, i64 noundef %264)
  %266 = icmp eq i32 %265, 0
  br i1 %266, label %267, label %268

267:                                              ; preds = %262
  store i32 0, ptr %6, align 4
  store i32 1, ptr %18, align 4
  br label %270

268:                                              ; preds = %262
  %269 = getelementptr inbounds [64 x i8], ptr %17, i64 0, i64 0
  call void @mbedtls_platform_zeroize(ptr noundef %269, i64 noundef 64)
  store i32 1, ptr %6, align 4
  store i32 1, ptr %18, align 4
  br label %270

270:                                              ; preds = %268, %267, %152, %139, %132, %123
  call void @llvm.lifetime.end.p0(i64 64, ptr %17) #10
  call void @llvm.lifetime.end.p0(i64 8, ptr %16) #10
  call void @llvm.lifetime.end.p0(i64 8, ptr %15) #10
  call void @llvm.lifetime.end.p0(i64 8, ptr %14) #10
  call void @llvm.lifetime.end.p0(i64 64, ptr %13) #10
  call void @llvm.lifetime.end.p0(i64 4, ptr %12) #10
  %271 = load i32, ptr %6, align 4
  ret i32 %271
}