; Function Attrs: nounwind uwtable
define internal fastcc i32 @ssl_tls13_offered_psks_check_binder_match(ptr noundef %0, ptr noundef %1, i64 noundef range(i64 0, 256) %2, i32 noundef %3, i32 noundef range(i32 33554432, 33554688) %4) unnamed_addr #0 {
  %6 = alloca [64 x i8], align 16
  %7 = alloca i64, align 8
  %8 = alloca ptr, align 8
  %9 = alloca i64, align 8
  %10 = alloca [64 x i8], align 16
  call void @llvm.lifetime.start.p0(i64 64, ptr nonnull %6) #9
  call void @llvm.lifetime.start.p0(i64 8, ptr nonnull %7) #9
  call void @llvm.lifetime.start.p0(i64 8, ptr nonnull %8) #9
  call void @llvm.lifetime.start.p0(i64 8, ptr nonnull %9) #9
  call void @llvm.lifetime.start.p0(i64 64, ptr nonnull %10) #9
  %11 = icmp eq i32 %4, 33554435
  br i1 %11, label %18, label %12

12:                                               ; preds = %5
  %switch.tableidx = add nsw i32 %4, -33554436
  %13 = icmp ult i32 %switch.tableidx, 15
  br i1 %13, label %switch.hole_check, label %14

14:                                               ; preds = %switch.hole_check, %12
  %15 = icmp eq i32 %4, 33554451
  %16 = select i1 %15, i64 64, i64 0
  br label %18

switch.hole_check:                                ; preds = %12
  %switch.maskindex = trunc nuw i32 %switch.tableidx to i16
  %switch.shifted = lshr i16 29683, %switch.maskindex
  %switch.lobit = trunc i16 %switch.shifted to i1
  br i1 %switch.lobit, label %switch.lookup, label %14

switch.lookup:                                    ; preds = %switch.hole_check
  %17 = zext nneg i32 %switch.tableidx to i64
  %switch.gep = getelementptr inbounds nuw [15 x i64], ptr @switch.table.ssl_tls13_offered_psks_check_binder_match.33, i64 0, i64 %17
  %switch.load = load i64, ptr %switch.gep, align 8
  br label %18

18:                                               ; preds = %switch.lookup, %14, %5
  %19 = phi i64 [ 16, %5 ], [ %16, %14 ], [ %switch.load, %switch.lookup ]
  %.not = icmp eq i64 %2, %19
  br i1 %.not, label %20, label %43

20:                                               ; preds = %18
  %21 = and i32 %4, 255
  %22 = call i32 @mbedtls_ssl_get_handshake_transcript(ptr noundef %0, i32 noundef %21, ptr noundef nonnull %6, i64 noundef 64, ptr noundef nonnull %7) #9
  %.not48 = icmp eq i32 %22, 0
  br i1 %.not48, label %23, label %43

23:                                               ; preds = %20
  %24 = call i32 @mbedtls_ssl_tls13_export_handshake_psk(ptr noundef %0, ptr noundef nonnull %8, ptr noundef nonnull %9) #9
  %.not49 = icmp eq i32 %24, 0
  br i1 %.not49, label %25, label %43

25:                                               ; preds = %23
  %26 = load ptr, ptr %8, align 8, !tbaa !38
  %27 = load i64, ptr %9, align 8, !tbaa !39
  %28 = call i32 @mbedtls_ssl_tls13_create_psk_binder(ptr noundef %0, i32 noundef %4, ptr noundef %26, i64 noundef %27, i32 noundef %3, ptr noundef nonnull %6, ptr noundef nonnull %10) #9
  %.not50 = icmp eq i32 %28, 0
  br i1 %.not50, label %30, label %29

29:                                               ; preds = %25
  call void (ptr, i32, ptr, i32, ptr, ...) @mbedtls_debug_print_msg(ptr noundef %0, i32 noundef 1, ptr noundef nonnull @.str, i32 noundef 443, ptr noundef nonnull @.str.78) #9
  br label %43

30:                                               ; preds = %25
  %31 = load i64, ptr %7, align 8, !tbaa !39
  call void @mbedtls_debug_print_buf(ptr noundef %0, i32 noundef 3, ptr noundef nonnull @.str, i32 noundef 448, ptr noundef nonnull @.str.79, ptr noundef nonnull %10, i64 noundef %31) #9
  call void @mbedtls_debug_print_buf(ptr noundef %0, i32 noundef 3, ptr noundef nonnull @.str, i32 noundef 449, ptr noundef nonnull @.str.80, ptr noundef %1, i64 noundef %2) #9
  br i1 %11, label %38, label %32

32:                                               ; preds = %30
  %switch.tableidx69 = add nsw i32 %4, -33554436
  %33 = icmp ult i32 %switch.tableidx69, 15
  br i1 %33, label %switch.hole_check70, label %34

34:                                               ; preds = %switch.hole_check70, %32
  %35 = icmp eq i32 %4, 33554451
  %36 = select i1 %35, i64 64, i64 0
  br label %38

switch.hole_check70:                              ; preds = %32
  %switch.maskindex72 = trunc nuw i32 %switch.tableidx69 to i16
  %switch.shifted73 = lshr i16 29683, %switch.maskindex72
  %switch.lobit74 = trunc i16 %switch.shifted73 to i1
  br i1 %switch.lobit74, label %switch.lookup71, label %34

switch.lookup71:                                  ; preds = %switch.hole_check70
  %37 = zext nneg i32 %switch.tableidx69 to i64
  %switch.gep75 = getelementptr inbounds nuw [15 x i64], ptr @switch.table.ssl_tls13_offered_psks_check_binder_match.33, i64 0, i64 %37
  %switch.load76 = load i64, ptr %switch.gep75, align 8
  br label %38

38:                                               ; preds = %switch.lookup71, %34, %30
  %39 = phi i64 [ 16, %30 ], [ %36, %34 ], [ %switch.load76, %switch.lookup71 ]
  %40 = call i32 @mbedtls_ct_memcmp(ptr noundef nonnull %10, ptr noundef %1, i64 noundef %39) #9
  %41 = icmp eq i32 %40, 0
  br i1 %41, label %43, label %42

42:                                               ; preds = %38
  call void @mbedtls_platform_zeroize(ptr noundef nonnull %10, i64 noundef 64) #9
  br label %43

43:                                               ; preds = %38, %23, %20, %18, %42, %29
  %.0 = phi i32 [ -28160, %29 ], [ 1, %42 ], [ 1, %18 ], [ %22, %20 ], [ %24, %23 ], [ 0, %38 ]
  call void @llvm.lifetime.end.p0(i64 64, ptr nonnull %10) #9
  call void @llvm.lifetime.end.p0(i64 8, ptr nonnull %9) #9
  call void @llvm.lifetime.end.p0(i64 8, ptr nonnull %8) #9
  call void @llvm.lifetime.end.p0(i64 8, ptr nonnull %7) #9
  call void @llvm.lifetime.end.p0(i64 64, ptr nonnull %6) #9
  ret i32 %.0
}